target datalayout = "e-m:e-p270:32:32-p271:32:32-p272:64:64-i64:64-i128:128-f80:128-n8:16:32:64-S128"
target triple = "x86_64-pc-linux-gnu"

; Function Attrs: nounwind uwtable
define void @ensureIndsIncrease(ptr noundef %0, ptr noundef %1) #0 {
  %3 = alloca ptr, align 8
  %4 = alloca ptr, align 8
  %5 = alloca i32, align 4
  store ptr %0, ptr %3, align 8, !tbaa !4
  store ptr %1, ptr %4, align 8, !tbaa !4
  %6 = load ptr, ptr %3, align 8, !tbaa !4
  %7 = load i32, ptr %6, align 4, !tbaa !9
  %8 = load ptr, ptr %4, align 8, !tbaa !4
  %9 = load i32, ptr %8, align 4, !tbaa !9
  %10 = icmp sgt i32 %7, %9
  br i1 %10, label %11, label %19

11:                                               ; preds = %2
  call void @llvm.lifetime.start.p0(i64 4, ptr %5) #8
  %12 = load ptr, ptr %3, align 8, !tbaa !4
  %13 = load i32, ptr %12, align 4, !tbaa !9
  store i32 %13, ptr %5, align 4, !tbaa !9
  %14 = load ptr, ptr %4, align 8, !tbaa !4
  %15 = load i32, ptr %14, align 4, !tbaa !9
  %16 = load ptr, ptr %3, align 8, !tbaa !4
  store i32 %15, ptr %16, align 4, !tbaa !9
  %17 = load i32, ptr %5, align 4, !tbaa !9
  %18 = load ptr, ptr %4, align 8, !tbaa !4
  store i32 %17, ptr %18, align 4, !tbaa !9
  call void @llvm.lifetime.end.p0(i64 4, ptr %5) #8
  br label %19

19:                                               ; preds = %11, %2
  ret void
}