; Function Attrs: mustprogress nofree norecurse nosync nounwind willreturn memory(argmem: readwrite) uwtable
define void @ensureIndsIncrease(ptr noundef captures(none) %0, ptr noundef captures(none) %1) local_unnamed_addr #2 {
  %3 = load i32, ptr %0, align 4, !tbaa !4
  %4 = load i32, ptr %1, align 4, !tbaa !4
  %5 = icmp sgt i32 %3, %4
  br i1 %5, label %6, label %7

6:                                                ; preds = %2
  store i32 %4, ptr %0, align 4, !tbaa !4
  store i32 %3, ptr %1, align 4, !tbaa !4
  br label %7

7:                                                ; preds = %6, %2
  ret void
}